target datalayout = "e-m:e-p270:32:32-p271:32:32-p272:64:64-i64:64-i128:128-f80:128-n8:16:32:64-S128"
target triple = "x86_64-pc-linux-gnu"

%class.btDefaultSoftBodySolver = type { %class.btSoftBodySolver.base, i8, [3 x i8], %class.btAlignedObjectArray }
%class.btSoftBodySolver.base = type <{ ptr, i32, i32, float }>
%class.btAlignedObjectArray = type <{ [4 x i8], i32, i32, [4 x i8], ptr, i8, [7 x i8] }>
%class.btVector3 = type { [4 x float] }
%class.btTransform = type { %class.btMatrix3x3, %class.btVector3 }
%class.btMatrix3x3 = type { [3 x %class.btVector3] }
%class.btAlignedObjectArray.0 = type <{ [4 x i8], i32, i32, [4 x i8], ptr, i8, [7 x i8] }>
%class.btCollisionObject = type <{ ptr, %class.btTransform, %class.btTransform, %class.btVector3, %class.btVector3, %class.btVector3, i32, float, ptr, ptr, ptr, ptr, i32, i32, i32, i32, i32, float, float, float, float, float, float, float, i32, [4 x i8], ptr, i32, i32, i32, float, float, float, i32, [4 x i8], %class.btAlignedObjectArray.0, i32, %class.btVector3, [4 x i8] }>

; Function Attrs: inlinehint mustprogress nounwind uwtable
define linkonce_odr dso_local noundef i32 @_ZNK17btCollisionObject18getActivationStateEv(ptr noundef nonnull align 8 dereferenceable(372) %0) #5 comdat align 2 {
  %2 = alloca ptr, align 8
  store ptr %0, ptr %2, align 8, !tbaa !38
  %3 = load ptr, ptr %2, align 8
  %4 = getelementptr inbounds nuw %class.btCollisionObject, ptr %3, i32 0, i32 16
  %5 = load i32, ptr %4, align 8, !tbaa !63
  ret i32 %5
}

; Function Attrs: inlinehint mustprogress uwtable
define linkonce_odr dso_local noundef zeroext i1 @_ZNK17btCollisionObject8isActiveEv(ptr noundef nonnull align 8 dereferenceable(372) %0) #6 comdat align 2 {
  %2 = alloca ptr, align 8
  store ptr %0, ptr %2, align 8, !tbaa !38
  %3 = load ptr, ptr %2, align 8
  %4 = call noundef i32 @_ZNK17btCollisionObject18getActivationStateEv(ptr noundef nonnull align 8 dereferenceable(372) %3)
  %5 = icmp ne i32 %4, 6
  br i1 %5, label %6, label %12

6:                                                ; preds = %1
  %7 = call noundef i32 @_ZNK17btCollisionObject18getActivationStateEv(ptr noundef nonnull align 8 dereferenceable(372) %3)
  %8 = icmp ne i32 %7, 2
  br i1 %8, label %9, label %12

9:                                                ; preds = %6
  %10 = call noundef i32 @_ZNK17btCollisionObject18getActivationStateEv(ptr noundef nonnull align 8 dereferenceable(372) %3)
  %11 = icmp ne i32 %10, 5
  br label %12

12:                                               ; preds = %9, %6, %1
  %13 = phi i1 [ false, %6 ], [ false, %1 ], [ %11, %9 ]
  ret i1 %13
}

; Function Attrs: inlinehint mustprogress nounwind uwtable
define linkonce_odr dso_local noundef nonnull align 8 dereferenceable(8) ptr @_ZN20btAlignedObjectArrayIP10btSoftBodyEixEi(ptr noundef nonnull align 8 dereferenceable(25) %0, i32 noundef %1) #5 comdat align 2 {
  %3 = alloca ptr, align 8
  %4 = alloca i32, align 4
  store ptr %0, ptr %3, align 8, !tbaa !29
  store i32 %1, ptr %4, align 4, !tbaa !9
  %5 = load ptr, ptr %3, align 8
  %6 = getelementptr inbounds nuw %class.btAlignedObjectArray, ptr %5, i32 0, i32 4
  %7 = load ptr, ptr %6, align 8, !tbaa !34
  %8 = load i32, ptr %4, align 4, !tbaa !9
  %9 = sext i32 %8 to i64
  %10 = getelementptr inbounds ptr, ptr %7, i64 %9
  ret ptr %10
}

; Function Attrs: inlinehint mustprogress nounwind uwtable
define linkonce_odr dso_local noundef i32 @_ZNK20btAlignedObjectArrayIP10btSoftBodyE4sizeEv(ptr noundef nonnull align 8 dereferenceable(25) %0) #5 comdat align 2 {
  %2 = alloca ptr, align 8
  store ptr %0, ptr %2, align 8, !tbaa !29
  %3 = load ptr, ptr %2, align 8
  %4 = getelementptr inbounds nuw %class.btAlignedObjectArray, ptr %3, i32 0, i32 1
  %5 = load i32, ptr %4, align 4, !tbaa !37
  ret i32 %5
}

; Function Attrs: mustprogress uwtable
define dso_local void @_ZN23btDefaultSoftBodySolver13predictMotionEf(ptr noundef nonnull align 8 dereferenceable(56) %0, float noundef %1) unnamed_addr #2 align 2 {
  %3 = alloca ptr, align 8
  %4 = alloca float, align 4
  %5 = alloca i32, align 4
  %6 = alloca ptr, align 8
  store ptr %0, ptr %3, align 8, !tbaa !12
  store float %1, ptr %4, align 4, !tbaa !40
  %7 = load ptr, ptr %3, align 8
  call void @llvm.lifetime.start.p0(i64 4, ptr %5) #11
  store i32 0, ptr %5, align 4, !tbaa !9
  br label %8

8:                                                ; preds = %25, %2
  %9 = load i32, ptr %5, align 4, !tbaa !9
  %10 = getelementptr inbounds nuw %class.btDefaultSoftBodySolver, ptr %7, i32 0, i32 3
  %11 = call noundef i32 @_ZNK20btAlignedObjectArrayIP10btSoftBodyE4sizeEv(ptr noundef nonnull align 8 dereferenceable(25) %10)
  %12 = icmp slt i32 %9, %11
  br i1 %12, label %14, label %13

13:                                               ; preds = %8
  call void @llvm.lifetime.end.p0(i64 4, ptr %5) #11
  br label %28

14:                                               ; preds = %8
  call void @llvm.lifetime.start.p0(i64 8, ptr %6) #11
  %15 = getelementptr inbounds nuw %class.btDefaultSoftBodySolver, ptr %7, i32 0, i32 3
  %16 = load i32, ptr %5, align 4, !tbaa !9
  %17 = call noundef nonnull align 8 dereferenceable(8) ptr @_ZN20btAlignedObjectArrayIP10btSoftBodyEixEi(ptr noundef nonnull align 8 dereferenceable(25) %15, i32 noundef %16)
  %18 = load ptr, ptr %17, align 8, !tbaa !32
  store ptr %18, ptr %6, align 8, !tbaa !32
  %19 = load ptr, ptr %6, align 8, !tbaa !32
  %20 = call noundef zeroext i1 @_ZNK17btCollisionObject8isActiveEv(ptr noundef nonnull align 8 dereferenceable(372) %19)
  br i1 %20, label %21, label %24

21:                                               ; preds = %14
  %22 = load ptr, ptr %6, align 8, !tbaa !32
  %23 = load float, ptr %4, align 4, !tbaa !40
  call void @_ZN10btSoftBody13predictMotionEf(ptr noundef nonnull align 8 dereferenceable(2064) %22, float noundef %23)
  br label %24

24:                                               ; preds = %21, %14
  call void @llvm.lifetime.end.p0(i64 8, ptr %6) #11
  br label %25

25:                                               ; preds = %24
  %26 = load i32, ptr %5, align 4, !tbaa !9
  %27 = add nsw i32 %26, 1
  store i32 %27, ptr %5, align 4, !tbaa !9
  br label %8, !llvm.loop !62

28:                                               ; preds = %13
  ret void
}